(lp0
S'aaditya.acharya97@gmail.com'
p1
aS'aadityaacharya.97@gmail.com'
p2
aS'aaditya.acharya.97@gmail.com'
p3
aS'aaditya.agarwal97@gmail.com'
p4
aS'aadityaagarwal.97@gmail.com'
p5
aS'aaditya.agarwal.97@gmail.com'
p6
aS'aaditya.agarwal1997@gmail.com'
p7
aS'aadityaagarwal.1997@gmail.com'
p8
aS'aaditya.agarwal.1997@gmail.com'
p9
aS'aaditya.agarwal1997@gmail.com'
p10
aS'aadityaagarwal.1997@gmail.com'
p11
aS'aaditya.agarwal.1997@gmail.com'
p12
aS'aaditya.anand79@gmail.com'
p13
aS'aadityaanand.79@gmail.com'
p14
aS'aaditya.anand.79@gmail.com'
p15
aS'aaditya.anand1997@gmail.com'
p16
aS'aadityaanand.1997@gmail.com'
p17
aS'aaditya.anand.1997@gmail.com'
p18
aS'aaditya.anand1997@gmail.com'
p19
aS'aadityaanand.1997@gmail.com'
p20
aS'aaditya.anand.1997@gmail.com'
p21
aS'aaditya.arya1997@gmail.com'
p22
aS'aadityaarya.1997@gmail.com'
p23
aS'aaditya.arya.1997@gmail.com'
p24
aS'aaditya.arya1997@gmail.com'
p25
aS'aadityaarya.1997@gmail.com'
p26
aS'aaditya.arya.1997@gmail.com'
p27
a.